target datalayout = "e-m:e-p270:32:32-p271:32:32-p272:64:64-i64:64-i128:128-f80:128-n8:16:32:64-S128"
target triple = "x86_64-pc-linux-gnu"

%struct.H5_user_cb_state_t = type { %struct.H5E_user_cb_state_t }
%struct.H5E_user_cb_state_t = type { i32, %union.anon, ptr }
%union.anon = type { ptr }
%struct.H5VL_class_t = type { i32, i32, ptr, i32, i64, ptr, ptr, %struct.H5VL_info_class_t, %struct.H5VL_wrap_class_t, %struct.H5VL_attr_class_t, %struct.H5VL_dataset_class_t, %struct.H5VL_datatype_class_t, %struct.H5VL_file_class_t, %struct.H5VL_group_class_t, %struct.H5VL_link_class_t, %struct.H5VL_object_class_t, %struct.H5VL_introspect_class_t, %struct.H5VL_request_class_t, %struct.H5VL_blob_class_t, %struct.H5VL_token_class_t, ptr }
%struct.H5VL_info_class_t = type { i64, ptr, ptr, ptr, ptr, ptr }
%struct.H5VL_wrap_class_t = type { ptr, ptr, ptr, ptr, ptr }
%struct.H5VL_attr_class_t = type { ptr, ptr, ptr, ptr, ptr, ptr, ptr, ptr }
%struct.H5VL_dataset_class_t = type { ptr, ptr, ptr, ptr, ptr, ptr, ptr, ptr }
%struct.H5VL_datatype_class_t = type { ptr, ptr, ptr, ptr, ptr, ptr }
%struct.H5VL_file_class_t = type { ptr, ptr, ptr, ptr, ptr, ptr }
%struct.H5VL_group_class_t = type { ptr, ptr, ptr, ptr, ptr, ptr }
%struct.H5VL_link_class_t = type { ptr, ptr, ptr, ptr, ptr, ptr }
%struct.H5VL_object_class_t = type { ptr, ptr, ptr, ptr, ptr }
%struct.H5VL_introspect_class_t = type { ptr, ptr, ptr }
%struct.H5VL_request_class_t = type { ptr, ptr, ptr, ptr, ptr, ptr }
%struct.H5VL_blob_class_t = type { ptr, ptr, ptr, ptr }
%struct.H5VL_token_class_t = type { ptr, ptr, ptr }

@.str = private unnamed_addr constant [106 x i8] c"generated/home/dtcxzyw/WorkSpace/Projects/compilers/llvm-opt-benchmark/bench/hdf5/hdf5/src/H5VLcallback.c\00", align 1
@H5E_LIB_g = external global i64, align 8
@H5E_CANTSET_g = external global i64, align 8
@.str.2 = private unnamed_addr constant [37 x i8] c"preparation for user callback failed\00", align 1
@H5E_CANTRESTORE_g = external global i64, align 8
@H5E_VOL_g = external global i64, align 8
@H5E_CANTCLOSEOBJ_g = external global i64, align 8
@H5VL_init_g = external global i8, align 1
@H5_libterm_g = external global i8, align 1
@H5E_UNSUPPORTED_g = external global i64, align 8
@.str.81 = private unnamed_addr constant [22 x i8] c"datatype close failed\00", align 1
@__func__.H5VL__datatype_close = private unnamed_addr constant [21 x i8] c"H5VL__datatype_close\00", align 1
@.str.195 = private unnamed_addr constant [45 x i8] c"VOL connector has no 'datatype close' method\00", align 1

; Function Attrs: nounwind uwtable
define internal i32 @H5VL__datatype_close(ptr noundef %0, ptr noundef %1, i64 noundef %2, ptr noundef %3) #0 {
  %5 = alloca i32, align 4
  %6 = alloca ptr, align 8
  %7 = alloca ptr, align 8
  %8 = alloca i64, align 8
  %9 = alloca ptr, align 8
  %10 = alloca i32, align 4
  %11 = alloca i8, align 1
  %12 = alloca %struct.H5_user_cb_state_t, align 8
  %13 = alloca i32, align 4
  store ptr %0, ptr %6, align 8, !tbaa !42
  store ptr %1, ptr %7, align 8, !tbaa !54
  store i64 %2, ptr %8, align 8, !tbaa !3
  store ptr %3, ptr %9, align 8, !tbaa !42
  call void @llvm.lifetime.start.p0(i64 4, ptr %10) #8
  store i32 0, ptr %10, align 4, !tbaa !7
  call void @llvm.lifetime.start.p0(i64 1, ptr %11) #8
  store i8 0, ptr %11, align 1, !tbaa !9
  %14 = load i8, ptr @H5VL_init_g, align 1, !tbaa !9, !range !14, !noundef !15
  %15 = trunc i8 %14 to i1
  br i1 %15, label %20, label %16

16:                                               ; preds = %4
  %17 = load i8, ptr @H5_libterm_g, align 1, !tbaa !9, !range !14, !noundef !15
  %18 = trunc i8 %17 to i1
  %19 = xor i1 %18, true
  br label %20

20:                                               ; preds = %16, %4
  %21 = phi i1 [ true, %4 ], [ %19, %16 ]
  %22 = xor i1 %21, true
  %23 = xor i1 %22, true
  %24 = zext i1 %23 to i32
  %25 = sext i32 %24 to i64
  %26 = call i64 @llvm.expect.i64(i64 %25, i64 1)
  %27 = icmp ne i64 %26, 0
  br i1 %27, label %28, label %132

28:                                               ; preds = %20
  %29 = load ptr, ptr %7, align 8, !tbaa !54
  %30 = getelementptr inbounds nuw %struct.H5VL_class_t, ptr %29, i32 0, i32 11
  %31 = getelementptr inbounds nuw %struct.H5VL_datatype_class_t, ptr %30, i32 0, i32 5
  %32 = load ptr, ptr %31, align 8, !tbaa !108
  %33 = icmp eq ptr null, %32
  br i1 %33, label %34, label %53

34:                                               ; preds = %28
  br label %35

35:                                               ; preds = %34
  br label %36

36:                                               ; preds = %35
  br label %37

37:                                               ; preds = %36
  %38 = load i64, ptr @H5E_VOL_g, align 8, !tbaa !3
  %39 = load i64, ptr @H5E_UNSUPPORTED_g, align 8, !tbaa !3
  %40 = call i32 (ptr, ptr, i32, i64, i64, ptr, ...) @H5E_printf_stack(ptr noundef @.str, ptr noundef @__func__.H5VL__datatype_close, i32 noundef 3502, i64 noundef %38, i64 noundef %39, ptr noundef @.str.195)
  br label %41

41:                                               ; preds = %37
  br label %42

42:                                               ; preds = %41
  store i8 1, ptr %11, align 1, !tbaa !9
  %43 = load i8, ptr %11, align 1, !tbaa !9, !range !14, !noundef !15
  %44 = trunc i8 %43 to i1
  %45 = zext i1 %44 to i8
  store i8 %45, ptr %11, align 1, !tbaa !9
  br label %46

46:                                               ; preds = %42
  br label %47

47:                                               ; preds = %46
  br label %48

48:                                               ; preds = %47
  store i32 -1, ptr %10, align 4, !tbaa !7
  br label %131

49:                                               ; No predecessors!
  br label %50

50:                                               ; preds = %49
  br label %51

51:                                               ; preds = %50
  br label %52

52:                                               ; preds = %51
  br label %53

53:                                               ; preds = %52, %28
  call void @llvm.lifetime.start.p0(i64 24, ptr %12) #8
  %54 = call i32 @H5_user_cb_prepare(ptr noundef %12)
  %55 = icmp slt i32 %54, 0
  br i1 %55, label %56, label %75

56:                                               ; preds = %53
  br label %57

57:                                               ; preds = %56
  br label %58

58:                                               ; preds = %57
  br label %59

59:                                               ; preds = %58
  %60 = load i64, ptr @H5E_LIB_g, align 8, !tbaa !3
  %61 = load i64, ptr @H5E_CANTSET_g, align 8, !tbaa !3
  %62 = call i32 (ptr, ptr, i32, i64, i64, ptr, ...) @H5E_printf_stack(ptr noundef @.str, ptr noundef @__func__.H5VL__datatype_close, i32 noundef 3505, i64 noundef %60, i64 noundef %61, ptr noundef @.str.2)
  br label %63

63:                                               ; preds = %59
  br label %64

64:                                               ; preds = %63
  store i8 1, ptr %11, align 1, !tbaa !9
  %65 = load i8, ptr %11, align 1, !tbaa !9, !range !14, !noundef !15
  %66 = trunc i8 %65 to i1
  %67 = zext i1 %66 to i8
  store i8 %67, ptr %11, align 1, !tbaa !9
  br label %68

68:                                               ; preds = %64
  br label %69

69:                                               ; preds = %68
  br label %70

70:                                               ; preds = %69
  store i32 -1, ptr %10, align 4, !tbaa !7
  store i32 10, ptr %13, align 4
  br label %106

71:                                               ; No predecessors!
  br label %72

72:                                               ; preds = %71
  br label %73

73:                                               ; preds = %72
  br label %74

74:                                               ; preds = %73
  br label %75

75:                                               ; preds = %74, %53
  %76 = load ptr, ptr %7, align 8, !tbaa !54
  %77 = getelementptr inbounds nuw %struct.H5VL_class_t, ptr %76, i32 0, i32 11
  %78 = getelementptr inbounds nuw %struct.H5VL_datatype_class_t, ptr %77, i32 0, i32 5
  %79 = load ptr, ptr %78, align 8, !tbaa !108
  %80 = load ptr, ptr %6, align 8, !tbaa !42
  %81 = load i64, ptr %8, align 8, !tbaa !3
  %82 = load ptr, ptr %9, align 8, !tbaa !42
  %83 = call i32 %79(ptr noundef %80, i64 noundef %81, ptr noundef %82)
  store i32 %83, ptr %10, align 4, !tbaa !7
  %84 = call i32 @H5_user_cb_restore(ptr noundef %12)
  %85 = icmp slt i32 %84, 0
  br i1 %85, label %86, label %105

86:                                               ; preds = %75
  br label %87

87:                                               ; preds = %86
  br label %88

88:                                               ; preds = %87
  br label %89

89:                                               ; preds = %88
  %90 = load i64, ptr @H5E_LIB_g, align 8, !tbaa !3
  %91 = load i64, ptr @H5E_CANTRESTORE_g, align 8, !tbaa !3
  %92 = call i32 (ptr, ptr, i32, i64, i64, ptr, ...) @H5E_printf_stack(ptr noundef @.str, ptr noundef @__func__.H5VL__datatype_close, i32 noundef 3510, i64 noundef %90, i64 noundef %91, ptr noundef @.str.2)
  br label %93

93:                                               ; preds = %89
  br label %94

94:                                               ; preds = %93
  store i8 1, ptr %11, align 1, !tbaa !9
  %95 = load i8, ptr %11, align 1, !tbaa !9, !range !14, !noundef !15
  %96 = trunc i8 %95 to i1
  %97 = zext i1 %96 to i8
  store i8 %97, ptr %11, align 1, !tbaa !9
  br label %98

98:                                               ; preds = %94
  br label %99

99:                                               ; preds = %98
  br label %100

100:                                              ; preds = %99
  store i32 -1, ptr %10, align 4, !tbaa !7
  store i32 10, ptr %13, align 4
  br label %106

101:                                              ; No predecessors!
  br label %102

102:                                              ; preds = %101
  br label %103

103:                                              ; preds = %102
  br label %104

104:                                              ; preds = %103
  br label %105

105:                                              ; preds = %104, %75
  store i32 0, ptr %13, align 4
  br label %106

106:                                              ; preds = %100, %70, %105
  call void @llvm.lifetime.end.p0(i64 24, ptr %12) #8
  %107 = load i32, ptr %13, align 4
  switch i32 %107, label %134 [
    i32 0, label %108
    i32 10, label %131
  ]

108:                                              ; preds = %106
  %109 = load i32, ptr %10, align 4, !tbaa !7
  %110 = icmp slt i32 %109, 0
  br i1 %110, label %111, label %130

111:                                              ; preds = %108
  br label %112

112:                                              ; preds = %111
  br label %113

113:                                              ; preds = %112
  br label %114

114:                                              ; preds = %113
  %115 = load i64, ptr @H5E_VOL_g, align 8, !tbaa !3
  %116 = load i64, ptr @H5E_CANTCLOSEOBJ_g, align 8, !tbaa !3
  %117 = call i32 (ptr, ptr, i32, i64, i64, ptr, ...) @H5E_printf_stack(ptr noundef @.str, ptr noundef @__func__.H5VL__datatype_close, i32 noundef 3512, i64 noundef %115, i64 noundef %116, ptr noundef @.str.81)
  br label %118

118:                                              ; preds = %114
  br label %119

119:                                              ; preds = %118
  store i8 1, ptr %11, align 1, !tbaa !9
  %120 = load i8, ptr %11, align 1, !tbaa !9, !range !14, !noundef !15
  %121 = trunc i8 %120 to i1
  %122 = zext i1 %121 to i8
  store i8 %122, ptr %11, align 1, !tbaa !9
  br label %123

123:                                              ; preds = %119
  br label %124

124:                                              ; preds = %123
  br label %125

125:                                              ; preds = %124
  store i32 -1, ptr %10, align 4, !tbaa !7
  br label %131

126:                                              ; No predecessors!
  br label %127

127:                                              ; preds = %126
  br label %128

128:                                              ; preds = %127
  br label %129

129:                                              ; preds = %128
  br label %130

130:                                              ; preds = %129, %108
  br label %131

131:                                              ; preds = %130, %106, %125, %48
  br label %132

132:                                              ; preds = %131, %20
  %133 = load i32, ptr %10, align 4, !tbaa !7
  store i32 %133, ptr %5, align 4
  store i32 1, ptr %13, align 4
  br label %134

134:                                              ; preds = %132, %106
  call void @llvm.lifetime.end.p0(i64 1, ptr %11) #8
  call void @llvm.lifetime.end.p0(i64 4, ptr %10) #8
  %135 = load i32, ptr %5, align 4
  ret i32 %135
}