; Function Attrs: nounwind uwtable
define internal fastcc range(i32 -1, -2147483648) i32 @H5VL__datatype_close(ptr noundef %0, ptr noundef readonly captures(none) %1, i64 noundef %2, ptr noundef %3) unnamed_addr #0 {
  %5 = alloca %struct.H5_user_cb_state_t, align 8
  %6 = load i8, ptr @H5VL_init_g, align 1, !tbaa !33, !range !35, !noundef !36
  %7 = trunc nuw i8 %6 to i1
  %8 = load i8, ptr @H5_libterm_g, align 1, !range !35
  %9 = trunc nuw i8 %8 to i1
  %10 = xor i1 %9, true
  %11 = select i1 %7, i1 true, i1 %10
  br i1 %11, label %12, label %37, !prof !37

12:                                               ; preds = %4
  %13 = getelementptr inbounds nuw i8, ptr %1, i64 304
  %14 = load ptr, ptr %13, align 8, !tbaa !86
  %15 = icmp eq ptr %14, null
  br i1 %15, label %16, label %20

16:                                               ; preds = %12
  %17 = load i64, ptr @H5E_VOL_g, align 8, !tbaa !3
  %18 = load i64, ptr @H5E_UNSUPPORTED_g, align 8, !tbaa !3
  %19 = tail call i32 (ptr, ptr, i32, i64, i64, ptr, ...) @H5E_printf_stack(ptr noundef nonnull @.str, ptr noundef nonnull @__func__.H5VL__datatype_close, i32 noundef 3502, i64 noundef %17, i64 noundef %18, ptr noundef nonnull @.str.195) #7
  br label %37

20:                                               ; preds = %12
  call void @llvm.lifetime.start.p0(i64 24, ptr nonnull %5) #7
  %21 = call i32 @H5_user_cb_prepare(ptr noundef nonnull %5) #7
  %22 = icmp slt i32 %21, 0
  br i1 %22, label %.thread, label %23

23:                                               ; preds = %20
  %24 = load ptr, ptr %13, align 8, !tbaa !86
  %25 = call i32 %24(ptr noundef %0, i64 noundef %2, ptr noundef %3) #7
  %26 = call i32 @H5_user_cb_restore(ptr noundef nonnull %5) #7
  %27 = icmp slt i32 %26, 0
  br i1 %27, label %.thread, label %31

.thread:                                          ; preds = %23, %20
  %H5E_CANTSET_g.sink = phi ptr [ @H5E_CANTSET_g, %20 ], [ @H5E_CANTRESTORE_g, %23 ]
  %.sink = phi i32 [ 3505, %20 ], [ 3510, %23 ]
  %28 = load i64, ptr @H5E_LIB_g, align 8, !tbaa !3
  %29 = load i64, ptr %H5E_CANTSET_g.sink, align 8, !tbaa !3
  %30 = call i32 (ptr, ptr, i32, i64, i64, ptr, ...) @H5E_printf_stack(ptr noundef nonnull @.str, ptr noundef nonnull @__func__.H5VL__datatype_close, i32 noundef %.sink, i64 noundef %28, i64 noundef %29, ptr noundef nonnull @.str.2) #7
  call void @llvm.lifetime.end.p0(i64 24, ptr nonnull %5) #7
  br label %37

31:                                               ; preds = %23
  call void @llvm.lifetime.end.p0(i64 24, ptr nonnull %5) #7
  %32 = icmp slt i32 %25, 0
  br i1 %32, label %33, label %37

33:                                               ; preds = %31
  %34 = load i64, ptr @H5E_VOL_g, align 8, !tbaa !3
  %35 = load i64, ptr @H5E_CANTCLOSEOBJ_g, align 8, !tbaa !3
  %36 = call i32 (ptr, ptr, i32, i64, i64, ptr, ...) @H5E_printf_stack(ptr noundef nonnull @.str, ptr noundef nonnull @__func__.H5VL__datatype_close, i32 noundef 3512, i64 noundef %34, i64 noundef %35, ptr noundef nonnull @.str.81) #7
  br label %37

37:                                               ; preds = %.thread, %31, %4, %33, %16
  %.013 = phi i32 [ -1, %16 ], [ %25, %31 ], [ -1, %33 ], [ 0, %4 ], [ -1, %.thread ]
  ret i32 %.013
}